target datalayout = "e-m:e-p270:32:32-p271:32:32-p272:64:64-i64:64-i128:128-f80:128-n8:16:32:64-S128"
target triple = "x86_64-pc-linux-gnu"

%struct.test_fixture = type { ptr, ptr, i32, i32, i32, ptr, i32, ptr }

@libctx = internal global ptr null, align 8
@.str.14 = private unnamed_addr constant [31 x i8] c"../openssl/test/cmp_msg_test.c\00", align 1
@pkcs10_f = internal global ptr null, align 8
@.str.44 = private unnamed_addr constant [27 x i8] c"test_cmp_pkimessage_create\00", align 1
@.str.51 = private unnamed_addr constant [25 x i8] c"valid_asn1_encoding(msg)\00", align 1
@stderr = external global ptr, align 8
@.str.83 = private unnamed_addr constant [50 x i8] c"OSSL_CMP_CTX_set1_p10CSR(fixture->cmp_ctx, p10cr)\00", align 1
@.str.84 = private unnamed_addr constant [66 x i8] c"msg = (ossl_cmp_msg_create (fixture->cmp_ctx, fixture->bodytype))\00", align 1

; Function Attrs: nounwind uwtable
define internal i32 @execute_pkimessage_create_test(ptr noundef %0) #0 {
  %2 = alloca ptr, align 8
  %3 = alloca ptr, align 8
  %4 = alloca i32, align 4
  store ptr %0, ptr %2, align 8, !tbaa !17
  br label %5

5:                                                ; preds = %1
  call void @llvm.lifetime.start.p0(i64 8, ptr %3) #4
  store ptr null, ptr %3, align 8, !tbaa !38
  call void @llvm.lifetime.start.p0(i64 4, ptr %4) #4
  %6 = load ptr, ptr %2, align 8, !tbaa !17
  %7 = getelementptr inbounds nuw %struct.test_fixture, ptr %6, i32 0, i32 6
  %8 = load i32, ptr %7, align 8, !tbaa !27
  %9 = icmp ne i32 %8, 0
  br i1 %9, label %10, label %30

10:                                               ; preds = %5
  %11 = load ptr, ptr %2, align 8, !tbaa !17
  %12 = getelementptr inbounds nuw %struct.test_fixture, ptr %11, i32 0, i32 1
  %13 = load ptr, ptr %12, align 8, !tbaa !28
  %14 = load ptr, ptr %2, align 8, !tbaa !17
  %15 = getelementptr inbounds nuw %struct.test_fixture, ptr %14, i32 0, i32 2
  %16 = load i32, ptr %15, align 8, !tbaa !21
  %17 = call ptr @ossl_cmp_msg_create(ptr noundef %13, i32 noundef %16)
  store ptr %17, ptr %3, align 8, !tbaa !38
  %18 = call i32 @test_ptr(ptr noundef @.str.14, i32 noundef 127, ptr noundef @.str.84, ptr noundef %17)
  %19 = icmp ne i32 %18, 0
  br i1 %19, label %20, label %27

20:                                               ; preds = %10
  %21 = load ptr, ptr %3, align 8, !tbaa !38
  %22 = call i32 @valid_asn1_encoding(ptr noundef %21)
  %23 = icmp ne i32 %22, 0
  %24 = zext i1 %23 to i32
  %25 = call i32 @test_true(ptr noundef @.str.14, i32 noundef 127, ptr noundef @.str.51, i32 noundef %24)
  %26 = icmp ne i32 %25, 0
  br label %27

27:                                               ; preds = %20, %10
  %28 = phi i1 [ false, %10 ], [ %26, %20 ]
  %29 = zext i1 %28 to i32
  br label %39

30:                                               ; preds = %5
  %31 = load ptr, ptr %2, align 8, !tbaa !17
  %32 = getelementptr inbounds nuw %struct.test_fixture, ptr %31, i32 0, i32 1
  %33 = load ptr, ptr %32, align 8, !tbaa !28
  %34 = load ptr, ptr %2, align 8, !tbaa !17
  %35 = getelementptr inbounds nuw %struct.test_fixture, ptr %34, i32 0, i32 2
  %36 = load i32, ptr %35, align 8, !tbaa !21
  %37 = call ptr @ossl_cmp_msg_create(ptr noundef %33, i32 noundef %36)
  store ptr %37, ptr %3, align 8, !tbaa !38
  %38 = call i32 @test_ptr_null(ptr noundef @.str.14, i32 noundef 127, ptr noundef @.str.84, ptr noundef %37)
  br label %39

39:                                               ; preds = %30, %27
  %40 = phi i32 [ %29, %27 ], [ %38, %30 ]
  store i32 %40, ptr %4, align 4, !tbaa !19
  %41 = load ptr, ptr %3, align 8, !tbaa !38
  call void @OSSL_CMP_MSG_free(ptr noundef %41)
  %42 = load ptr, ptr @stderr, align 8, !tbaa !39
  call void @ERR_print_errors_fp(ptr noundef %42)
  %43 = load i32, ptr %4, align 4, !tbaa !19
  call void @llvm.lifetime.end.p0(i64 4, ptr %4) #4
  call void @llvm.lifetime.end.p0(i64 8, ptr %3) #4
  br label %44

44:                                               ; preds = %39
  ret i32 %43
}

; Function Attrs: nounwind uwtable
define internal i32 @test_cmp_pkimessage_create(i32 noundef %0) #0 {
  %2 = alloca i32, align 4
  %3 = alloca i32, align 4
  %4 = alloca ptr, align 8
  %5 = alloca ptr, align 8
  %6 = alloca i32, align 4
  %7 = alloca i32, align 4
  store i32 %0, ptr %3, align 4, !tbaa !19
  call void @llvm.lifetime.start.p0(i64 8, ptr %4) #4
  store ptr null, ptr %4, align 8, !tbaa !32
  call void @llvm.lifetime.start.p0(i64 8, ptr %5) #4
  %8 = call ptr @set_up(ptr noundef @.str.44)
  store ptr %8, ptr %5, align 8, !tbaa !17
  call void @llvm.lifetime.start.p0(i64 4, ptr %6) #4
  store i32 0, ptr %6, align 4, !tbaa !19
  %9 = load ptr, ptr %5, align 8, !tbaa !17
  %10 = icmp eq ptr %9, null
  br i1 %10, label %11, label %12

11:                                               ; preds = %1
  store i32 0, ptr %2, align 4
  store i32 1, ptr %7, align 4
  br label %50

12:                                               ; preds = %1
  %13 = load i32, ptr %3, align 4, !tbaa !19
  %14 = load ptr, ptr %5, align 8, !tbaa !17
  %15 = getelementptr inbounds nuw %struct.test_fixture, ptr %14, i32 0, i32 2
  store i32 %13, ptr %15, align 8, !tbaa !21
  switch i32 %13, label %38 [
    i32 4, label %16
    i32 0, label %35
    i32 1, label %35
    i32 2, label %35
    i32 3, label %35
    i32 7, label %35
    i32 8, label %35
    i32 11, label %35
    i32 12, label %35
    i32 19, label %35
    i32 21, label %35
    i32 22, label %35
    i32 23, label %35
    i32 24, label %35
    i32 25, label %35
    i32 26, label %35
  ]

16:                                               ; preds = %12
  %17 = load ptr, ptr %5, align 8, !tbaa !17
  %18 = getelementptr inbounds nuw %struct.test_fixture, ptr %17, i32 0, i32 6
  store i32 1, ptr %18, align 8, !tbaa !27
  %19 = load ptr, ptr @pkcs10_f, align 8, !tbaa !15
  %20 = load ptr, ptr @libctx, align 8, !tbaa !13
  %21 = call ptr @load_csr_der(ptr noundef %19, ptr noundef %20)
  store ptr %21, ptr %4, align 8, !tbaa !32
  %22 = load ptr, ptr %5, align 8, !tbaa !17
  %23 = getelementptr inbounds nuw %struct.test_fixture, ptr %22, i32 0, i32 1
  %24 = load ptr, ptr %23, align 8, !tbaa !28
  %25 = load ptr, ptr %4, align 8, !tbaa !32
  %26 = call i32 @OSSL_CMP_CTX_set1_p10CSR(ptr noundef %24, ptr noundef %25)
  %27 = icmp ne i32 %26, 0
  %28 = zext i1 %27 to i32
  %29 = call i32 @test_true(ptr noundef @.str.14, i32 noundef 505, ptr noundef @.str.83, i32 noundef %28)
  %30 = icmp ne i32 %29, 0
  br i1 %30, label %33, label %31

31:                                               ; preds = %16
  %32 = load ptr, ptr %5, align 8, !tbaa !17
  call void @tear_down(ptr noundef %32)
  store ptr null, ptr %5, align 8, !tbaa !17
  br label %33

33:                                               ; preds = %31, %16
  %34 = load ptr, ptr %4, align 8, !tbaa !32
  call void @X509_REQ_free(ptr noundef %34)
  br label %41

35:                                               ; preds = %12, %12, %12, %12, %12, %12, %12, %12, %12, %12, %12, %12, %12, %12, %12
  %36 = load ptr, ptr %5, align 8, !tbaa !17
  %37 = getelementptr inbounds nuw %struct.test_fixture, ptr %36, i32 0, i32 6
  store i32 1, ptr %37, align 8, !tbaa !27
  br label %41

38:                                               ; preds = %12
  %39 = load ptr, ptr %5, align 8, !tbaa !17
  %40 = getelementptr inbounds nuw %struct.test_fixture, ptr %39, i32 0, i32 6
  store i32 0, ptr %40, align 8, !tbaa !27
  br label %41

41:                                               ; preds = %38, %35, %33
  %42 = load ptr, ptr %5, align 8, !tbaa !17
  %43 = icmp ne ptr %42, null
  br i1 %43, label %44, label %48

44:                                               ; preds = %41
  %45 = load ptr, ptr %5, align 8, !tbaa !17
  %46 = call i32 @execute_pkimessage_create_test(ptr noundef %45)
  store i32 %46, ptr %6, align 4, !tbaa !19
  %47 = load ptr, ptr %5, align 8, !tbaa !17
  call void @tear_down(ptr noundef %47)
  br label %48

48:                                               ; preds = %44, %41
  %49 = load i32, ptr %6, align 4, !tbaa !19
  store i32 %49, ptr %2, align 4
  store i32 1, ptr %7, align 4
  br label %50

50:                                               ; preds = %48, %11
  call void @llvm.lifetime.end.p0(i64 4, ptr %6) #4
  call void @llvm.lifetime.end.p0(i64 8, ptr %5) #4
  call void @llvm.lifetime.end.p0(i64 8, ptr %4) #4
  %51 = load i32, ptr %2, align 4
  ret i32 %51
}